Archive member included because of file (symbol)

c:/MWSDK/Wks_TWELITE/basic_code/../../TWENET/L1200/lib/libTWENET_BLUE.a(ToCoNet_event.o)
                              objs_BLUE/Main.o (symbol from plugin) (PRSEV_u8Register)
c:/MWSDK/Wks_TWELITE/basic_code/../../TWENET/L1200/lib/libTWENET_BLUE.a(ToCoNet_main.o)
                              ToCoNet_event.o (symbol from plugin) (u32TickCount_ms)
c:/MWSDK/Wks_TWELITE/basic_code/../../TWENET/L1200/lib/libTWENET_BLUE.a(ToCoNet_utils.o)
                              ToCoNet_main.o (symbol from plugin) (ToCoNet_u32GetVersion)
c:/MWSDK/Wks_TWELITE/basic_code/../../TWENET/L1200/lib/libTWENET_BLUE.a(ToCoNet_mod_Tx.o)
                              objs_BLUE/Main.o (symbol from plugin) (ToCoNet_vReg_mod_Tx_Standard)
c:/MWSDK/Wks_TWELITE/basic_code/../../TWENET/L1200/lib/libTWENET_BLUE.a(ToCoNet_mod_TxRxQueue.o)
                              objs_BLUE/Main.o (symbol from plugin) (ToCoNet_vReg_mod_TxRxQueueMid)
c:/MWSDK/Wks_TWELITE/basic_code/../../TWENET/L1200/lib/libTWENET_BLUE.a(ToCoNet_mod_Nwk_Common.o)
                              ToCoNet_main.o (symbol from plugin) (ToCoNet_vRxProc_Mod)
c:/MWSDK/Wks_TWELITE/basic_code/../../TWENET/L1200/lib/libTWENET_BLUE.a(ToCoNet_mod_Channel_Mgr.o)
                              ToCoNet_mod_Tx.o (symbol from plugin) (ToCoNet_ChMgr_bCh_OnTx)
c:/MWSDK/Wks_TWELITE/basic_code/../../TWENET/L1200/lib/libTWENET_BLUE.a(Version.o)
                              ToCoNet_utils.o (symbol from plugin) (au8ToCoNetVersionInfo)
c:/MWSDK/Wks_TWELITE/basic_code/../../TWENET/L1200/lib/libTWENET_BLUE.a(AppQueueApi_ToCoNet.o)
                              ToCoNet_main.o (symbol from plugin) (u32AppQApiInitInt_PATCH)
c:/MWSDK/Wks_TWELITE/basic_code/../../TWENET/L1200/lib/libTWENEText_BLUE.a(AppStart.o)
                              (AppColdStart)
c:/MWSDK/Wks_TWELITE/basic_code/../../TWENET/L1200/lib/libTWENEText_BLUE.a(getMacAddr.o)
                              ToCoNet_main.o (symbol from plugin) (ToCoNet_u32GetSerialOnBoot)
c:/MWSDK/Wks_TWELITE/basic_code/../../TWENET/L1200/lib/libTWENEText_BLUE.a(mac.o)
                              ToCoNet_main.o (symbol from plugin) (Mac_vInit)
c:/MWSDK/Wks_TWELITE/basic_code/../../TWENET/L1200/lib/libTWENEText_BLUE.a(AES_CCM.o)
                              AppStart.o (symbol from plugin) (bAES_CCM_KeyReg)
c:/MWSDK/Wks_TWELITE/basic_code/../../TWENET/L1200/lib/libTWENEText_BLUE.a(no_ack_handler.o)
                              AppStart.o (symbol from plugin) (vInstallNoAckHandler)
c:/MWSDK/Wks_TWELITE/basic_code/../../TWENET/L1200/lib/libTWENEText_BLUE.a(Version.o)
                              ToCoNet_utils.o (symbol from plugin) (au8ToCoNetExtVersionInfo)
c:/MWSDK/Wks_TWELITE/basic_code/../../TWENET/L1200/lib/libTWENETutils_BLUE.a(serial.o)
                              objs_BLUE/Main.o (symbol from plugin) (SERIAL_vInit)
c:/MWSDK/Wks_TWELITE/basic_code/../../TWENET/L1200/lib/libTWENETutils_BLUE.a(uart.o)
                              serial.o (symbol from plugin) (UART_vInit)
c:/MWSDK/Wks_TWELITE/basic_code/../../TWENET/L1200/lib/libTWENETutils_BLUE.a(ByteQueue.o)
                              ToCoNet_main.o (symbol from plugin) (QUEUE__vInit)
c:/MWSDK/Wks_TWELITE/basic_code/../../TWENET/L1200/lib/libTWENETutils_BLUE.a(ccitt8.o)
                              AppStart.o (symbol from plugin) (u8CCITT8)
c:/MWSDK/Wks_TWELITE/basic_code/../../TWENET/L1200/lib/libTWENETutils_BLUE.a(fprintf.o)
                              objs_BLUE/Main.o (symbol from plugin) (vfPrintf)
c:/MWSDK/Wks_TWELITE/basic_code/../../TWENET/L1200/lib/libTWENETutils_BLUE.a(sprintf.o)
                              objs_BLUE/Main.o (symbol from plugin) (SPRINTF_vInit128)
c:/MWSDK/Wks_TWELITE/basic_code/../../TWENET/L1200/lib/libTWENETutils_BLUE.a(utils.o)
                              ToCoNet_main.o (symbol from plugin) (vTimerConfig)
c:/MWSDK/Wks_TWELITE/basic_code/../../TWENET/L1200/lib/libTWENETutils_BLUE.a(ccm.o)
                              AES_CCM.o (symbol from plugin) (ccm_init_and_key)
c:/MWSDK/Wks_TWELITE/basic_code/../../TWENET/L1200/lib/libTWENETutils_BLUE.a(Version.o)
                              ToCoNet_utils.o (symbol from plugin) (au8ToCoNetUtilsVersionInfo)
c:/MWSDK/Wks_TWELITE/basic_code/../../TWENET/L1200/lib/libTWENETutils_BLUE.a(aescrypt.o)
                              ccm.o (symbol from plugin) (aes_encrypt)
c:/MWSDK/Wks_TWELITE/basic_code/../../TWENET/L1200/lib/libTWENETutils_BLUE.a(aeskey.o)
                              ccm.o (symbol from plugin) (aes_encrypt_key)
c:/MWSDK/Wks_TWELITE/basic_code/../../TWENET/L1200/lib/libTWENETutils_BLUE.a(aestab.o)
                              aeskey.o (symbol from plugin) (t_im)
c:/MWSDK/ChipLib/SW4063V1416/Components/Library\libAppApi_JN516x.a(AppApi.o)
                              (pvAppApiDefGetMacHandle)
c:/MWSDK/ChipLib/SW4063V1416/Components/Library\libAppApi_JN516x.a(AppApiSleep.o)
                              (vAppApiDefSaveMacSettings)
c:/MWSDK/ChipLib/SW4063V1416/Components/Library\libMAC_JN516x.a(mac_main.o)
                              AppApi.o (symbol from plugin) (MAC_pvCtor)
c:/MWSDK/ChipLib/SW4063V1416/Components/Library\libMAC_JN516x.a(mac_mcps.o)
                              AppApi.o (symbol from plugin) (MAC_vHandleMcpsReqRsp)
c:/MWSDK/ChipLib/SW4063V1416/Components/Library\libMAC_JN516x.a(mac_mlme.o)
                              AppApi.o (symbol from plugin) (MAC_vHandleMlmeReqRsp)
c:/MWSDK/ChipLib/SW4063V1416/Components/Library\libMAC_JN516x.a(mac_pib.o)
                              AppStart.o (symbol from plugin) (MAC_psPibGetHandle)
c:/MWSDK/ChipLib/SW4063V1416/Components/Library\libMAC_JN516x.a(mac_pib_mlme.o)
                              mac_main.o (symbol from plugin) (mac_vPibSetDefaults)
c:/MWSDK/ChipLib/SW4063V1416/Components/Library\libMAC_JN516x.a(mac_pmic.o)
                              mac_main.o (symbol from plugin) (vPMICreset)
c:/MWSDK/ChipLib/SW4063V1416/Components/Library\libMAC_JN516x.a(mac_ind.o)
                              AppApi.o (symbol from plugin) (MAC_vRegisterMlmeDcfmIndCallbacks)
c:/MWSDK/ChipLib/SW4063V1416/Components/Library\libMAC_JN516x.a(mac_scan.o)
                              mac_main.o (symbol from plugin) (mac_eScanInit)
c:/MWSDK/ChipLib/SW4063V1416/Components/Library\libMAC_JN516x.a(mac_lp.o)
                              mac_pmic.o (symbol from plugin) (g_sLP)
c:/MWSDK/ChipLib/SW4063V1416/Components/Library\libMAC_JN516x.a(MCPS.o)
                              mac_mcps.o (symbol from plugin) (vTAM_MCPSdataRequest)
c:/MWSDK/ChipLib/SW4063V1416/Components/Library\libMAC_JN516x.a(phy_pib.o)
                              AppApi.o (symbol from plugin) (phy_ePibGet)
c:/MWSDK/ChipLib/SW4063V1416/Components/Library\libMAC_JN516x.a(TAM.o)
                              MCPS.o (symbol from plugin) (bTAMinPAN)
c:/MWSDK/ChipLib/SW4063V1416/Components/Library\libMAC_JN516x.a(TAMCO.o)
                              TAM.o (symbol from plugin) (vTAMCOsetCoordinator)
c:/MWSDK/ChipLib/SW4063V1416/Components/Library\libMAC_JN516x.a(TAMDE.o)
                              TAM.o (symbol from plugin) (vTAMDEdetermineNullState)
c:/MWSDK/ChipLib/SW4063V1416/Components/Library\libMAC_JN516x.a(TAM_MEM.o)
                              TAM.o (symbol from plugin) (vMEMreset)
c:/MWSDK/ChipLib/SW4063V1416/Components/Library\libMAC_JN516x.a(TAM_MLME.o)
                              mac_scan.o (symbol from plugin) (vMLMEbeaconNotify)
c:/MWSDK/ChipLib/SW4063V1416/Components/Library\libMAC_JN516x.a(TAM_TAH.o)
                              TAMCO.o (symbol from plugin) (vTAHsetCutOff)
c:/MWSDK/ChipLib/SW4063V1416/Components/Library\libMAC_JN516x.a(TAM_TAI.o)
                              TAM.o (symbol from plugin) (vTAIsetCapTime)
c:/MWSDK/ChipLib/SW4063V1416/Components/Library\libMAC_JN516x.a(TAM_TAT.o)
                              TAMDE.o (symbol from plugin) (vTATstartReceiveAt)
c:/MWSDK/ChipLib/SW4063V1416/Components/Library\libMAC_JN516x.a(TAMcommon.o)
                              mac_scan.o (symbol from plugin) (bTACassessBeaconForPayload)
c:/MWSDK/ChipLib/SW4063V1416/Components/Library\libMAC_JN516x.a(TAMevent.o)
                              mac_lp.o (symbol from plugin) (vTAMinsertEvent)
c:/MWSDK/ChipLib/SW4063V1416/Components/Library\libMAC_JN516x.a(TAMqueue.o)
                              TAMcommon.o (symbol from plugin) (vTAQaddToFifo)
c:/MWSDK/ChipLib/SW4063V1416/Components/Library\libMAC_JN516x.a(TAMrxEnable.o)
                              TAMevent.o (symbol from plugin) (vTAMRXEint2Fired)
c:/MWSDK/ChipLib/SW4063V1416/Components/Library\libMAC_JN516x.a(TAMsecurity.o)
                              TAMcommon.o (symbol from plugin) (vTSCgetIncomingInfo)
c:/MWSDK/ChipLib/SW4063V1416/Components/Library\libMAC_JN516x.a(TAMsideways.o)
                              mac_pmic.o (symbol from plugin) (eTAStransmitRequest)
c:/MWSDK/ChipLib/SW4063V1416/Components/Library\libMAC_JN516x.a(TAMtime.o)
                              TAM.o (symbol from plugin) (vTTIBLETimerExpired)
c:/MWSDK/ChipLib/SW4063V1416/Components/Library\libMAC_JN516x.a(TAM_AES.o)
                              TAMsecurity.o (symbol from plugin) (u8TAM_AES_WriteAuxilliarySecurityHeaderIntoBuffer)
c:/MWSDK/ChipLib/SW4063V1416/Components/Library\libMAC_JN516x.a(Endian.o)
                              TAM_AES.o (symbol from plugin) (vFromU16ToLe)
c:/MWSDK/ChipLib/SW4063V1416/Components/Library\libMAC_JN516x.a(mac_acl.o)
                              TAMsecurity.o (symbol from plugin) (MAC_u8AclFindInfo)
c:/MWSDK/ChipLib/SW4063V1416/Components/Library\libMAC_JN516x.a(mac_misc.o)
                              mac_mlme.o (symbol from plugin) (vMAC_MISCpollRequest)
c:/MWSDK/ChipLib/SW4063V1416/Components/Library\libTimerServer_JN516x.a(tsv_main.o)
                              AppApiSleep.o (symbol from plugin) (s_sTimerList)
c:/MWSDK/ChipLib/SW4063V1416/Components/Library\libXcv_JN516x.a(xcv_main.o)
                              AppApi.o (symbol from plugin) (XCV_vCtor)
c:/MWSDK/ChipLib/SW4063V1416/Components/Library\libXcv_JN516x.a(xcv_access.o)
                              mac_main.o (symbol from plugin) (XCV_vDevWriteIER)
c:/MWSDK/ChipLib/SW4063V1416/Components/Library\libXcv_JN516x.a(xcv_isr.o)
                              AppApi.o (symbol from plugin) (vXCV_IntHandlerPhy)
c:/MWSDK/ChipLib/SW4063V1416/Components/Library\libAes_JN516x.a(AEScoprocessorCCM.o)
                              AES_CCM.o (symbol from plugin) (bACI_CCMstar)
c:/MWSDK/ChipLib/SW4063V1416/Components/Library\libAes_JN516x.a(AES_CCM_Star.o)
                              TAM_AES.o (symbol from plugin) (vACI_OptimisedCcmStar)
c:/MWSDK/ChipLib/SW4063V1416/Components/Library\libAes_JN516x.a(AEScoprocessorAPI.o)
                              AES_CCM_Star.o (symbol from plugin) (vACI_CmdWaitBusy)
c:/MWSDK/ChipLib/SW4063V1416/Components/Library\libHardwareApi_JN516x.a(AHI_Analogue.o)
                              utils.o (symbol from plugin) (bAHI_APRegulatorEnabled)
c:/MWSDK/ChipLib/SW4063V1416/Components/Library\libHardwareApi_JN516x.a(AHI_Dio.o)
                              objs_BLUE/Main.o (symbol from plugin) (vAHI_DioSetDirection)
c:/MWSDK/ChipLib/SW4063V1416/Components/Library\libHardwareApi_JN516x.a(AHI_Reset.o)
                              ToCoNet_main.o (symbol from plugin) (vAHI_SwReset)
c:/MWSDK/ChipLib/SW4063V1416/Components/Library\libHardwareApi_JN516x.a(AHI_Spi.o)
                              AppQueueApi_ToCoNet.o (symbol from plugin) (vAHI_SpiRegisterCallback)
c:/MWSDK/ChipLib/SW4063V1416/Components/Library\libHardwareApi_JN516x.a(AHI_System.o)
                              AppApiSleep.o (symbol from plugin) (u8AHI_PowerStatus)
c:/MWSDK/ChipLib/SW4063V1416/Components/Library\libHardwareApi_JN516x.a(AHI_Timer.o)
                              utils.o (symbol from plugin) (vAHI_TimerEnable)
c:/MWSDK/ChipLib/SW4063V1416/Components/Library\libHardwareApi_JN516x.a(AHI_TimerInt.o)
                              AppQueueApi_ToCoNet.o (symbol from plugin) (vAHI_Timer0RegisterCallback)
c:/MWSDK/ChipLib/SW4063V1416/Components/Library\libHardwareApi_JN516x.a(AHI_Uart.o)
                              uart.o (symbol from plugin) (vAHI_UartSetBaudDivisor)
c:/MWSDK/ChipLib/SW4063V1416/Components/Library\libHardwareApi_JN516x.a(AHI_WakeTimer.o)
                              ToCoNet_utils.o (symbol from plugin) (vAHI_WakeTimerEnable)
c:/MWSDK/ChipLib/SW4063V1416/Components/Library\libHardwareApi_JN516x.a(AHI_Flash.o)
                              AHI_System.o (symbol from plugin) (vAHI_FlashAndEEPROMControllerIntHandler)
c:/MWSDK/ChipLib/SW4063V1416/Components/Library\libHardwareApi_JN516x.a(AHI_Infrared.o)
                              AHI_TimerInt.o (symbol from plugin) (vAHI_IntHandlerInfrared)
c:/MWSDK/ChipLib/SW4063V1416/Components/Library\libHardwareApi_JN516x.a(InternalFlashApi.o)
                              AHI_Flash.o (symbol from plugin) (bFlashErase)
c:/MWSDK/ChipLib/SW4063V1416/Components/Library\libHardwareApi_JN516x.a(AHI_FlashIndexSector.o)
                              AppStart.o (symbol from plugin) (bAHI_ReadMACID)
c:/MWSDK/ChipLib/SW4063V1416/Components/Library\libHardwareApi_JN516x.a(AHI_Si.o)
                              AppQueueApi_ToCoNet.o (symbol from plugin) (vAHI_SiRegisterCallback)
c:/MWSDK/ChipLib/SW4063V1416/Components/Library\libHardwareApi_JN516x.a(AHI_TickTimer.o)
                              AppQueueApi_ToCoNet.o (symbol from plugin) (vAHI_TickTimerInit)
c:/MWSDK/ChipLib/SW4063V1416/Components/Library\libHardwareApi_JN516x.a(AHI_Interrupt.o)
                              AppApi.o (symbol from plugin) (vAHI_InterruptSetPriority)
c:/MWSDK/ChipLib/SW4063V1416/Components/Library\libHardwareApi_JN516x.a(AHI_Init.o)
                              AppStart.o (symbol from plugin) (u32AHI_Init)
c:/MWSDK/ChipLib/SW4063V1416/Components/Library\libHardwareApi_JN516x.a(AHI_SpiSlave.o)
                              AHI_Init.o (symbol from plugin) (vAHI_IntHandlerSpiSlave)
c:/MWSDK/ChipLib/SW4063V1416/Components/Library\libMicroSpecific_JN516x.a(MicroInt_ba.o)
                              serial.o (symbol from plugin) (vMicroIntEnableOnly)
c:/MWSDK/ChipLib/SW4063V1416/Components/Library\libMicroSpecific_JN516x.a(MicroSyscall_ba.o)
                              AHI_Reset.o (symbol from plugin) (vMicroSyscall)
c:/MWSDK/ChipLib/SW4063V1416/Components/Library\libBoot_JN516x.a(Heap.o)
                              (u32HeapStart)
c:/MWSDK/ChipLib/SW4063V1416/Components/Library\libBoot_JN516x.a(ExceptionHandler.o)
                              (_exception_external_interrupt)
c:/MWSDK/ChipLib/SW4063V1416/Components/Library\libAppApi_JN516x.a(AppHousekeeping.o)
                              mac_scan.o (symbol from plugin) (sAppHousekeeping)
c:/MWSDK/ChipLib/SW4063V1416/Components/Library\libAes_JN516x.a(AEScoprocessorAPIinterrupts.o)
                              AHI_Init.o (symbol from plugin) (vACI_IntHandlerAes)
c:/mwsdk/tools/ba-elf-ba2-r36379/bin/../lib/gcc/ba-elf/4.7.4/../../../../ba-elf/lib/mcpu_jn51xx_sizeopt\libc.a(lib_a-memcmp.o)
                              C:\Users\Maeoka\AppData\Local\Temp\ccAhU5mk.ltrans4.ltrans.o (memcmp)
c:/mwsdk/tools/ba-elf-ba2-r36379/bin/../lib/gcc/ba-elf/4.7.4/../../../../ba-elf/lib/mcpu_jn51xx_sizeopt\libc.a(lib_a-memcpy.o)
                              C:\Users\Maeoka\AppData\Local\Temp\ccAhU5mk.ltrans0.ltrans.o (memcpy)
c:/mwsdk/tools/ba-elf-ba2-r36379/bin/../lib/gcc/ba-elf/4.7.4/../../../../ba-elf/lib/mcpu_jn51xx_sizeopt\libc.a(lib_a-memset.o)
                              C:\Users\Maeoka\AppData\Local\Temp\ccAhU5mk.ltrans1.ltrans.o (memset)
c:/mwsdk/tools/ba-elf-ba2-r36379/bin/../lib/gcc/ba-elf/4.7.4/mcpu_jn51xx_sizeopt\libgcc.a(__udivsi3.o)
                              C:\Users\Maeoka\AppData\Local\Temp\ccAhU5mk.ltrans1.ltrans.o (__udivsi3)
c:/mwsdk/tools/ba-elf-ba2-r36379/bin/../lib/gcc/ba-elf/4.7.4/mcpu_jn51xx_sizeopt\libgcc.a(__divsi3.o)
                              C:\Users\Maeoka\AppData\Local\Temp\ccAhU5mk.ltrans2.ltrans.o (__divsi3)
c:/mwsdk/tools/ba-elf-ba2-r36379/bin/../lib/gcc/ba-elf/4.7.4/mcpu_jn51xx_sizeopt\libgcc.a(__umodsi3.o)
                              C:\Users\Maeoka\AppData\Local\Temp\ccAhU5mk.ltrans3.ltrans.o (__umodsi3)

Allocating common symbols
Common symbol       size              file

_TWENET_TX_POWER_MAX
                    0x1               AppStart.o (symbol from plugin)
apvHwIndBufferData  0x2c              AppQueueApi_ToCoNet.o (symbol from plugin)
prMAC_TofMlmeReqHandler
                    0x4               mac_mlme.o (symbol from plugin)
apvMlmeIndBufferData
                    0x14              AppQueueApi_ToCoNet.o (symbol from plugin)
_TWENET_TX_POWER_VALUE
                    0x1               AppStart.o (symbol from plugin)
g_tSpiConfiguration
                    0x4               AHI_Flash.o (symbol from plugin)
SPRINTF_Stream      0x4               sprintf.o (symbol from plugin)
prMAC_TofRxHandler  0x4               TAMcommon.o (symbol from plugin)
_MAC_u8TxFailReason
                    0x1               mac.o (symbol from plugin)
apvMcpsIndBufferData
                    0x14              AppQueueApi_ToCoNet.o (symbol from plugin)
bAHI_ExtendedTemperatureOperation
                    0x1               AHI_System.o (symbol from plugin)
bMAC_DiscardUnsuccessfulAssocResponses
                    0x1               mac_pmic.o (symbol from plugin)
u8Msq               0x1               TAM_TAT.o (symbol from plugin)
g_bLegacyHwBugEmulation
                    0x1               AES_CCM_Star.o (symbol from plugin)

Discarded input sections

 .text          0x0000000000000000        0x0 objs_BLUE/Main.o (symbol from plugin)
 .data          0x0000000000000000        0x0 C:\Users\Maeoka\AppData\Local\Temp\ccAhU5mk.ltrans0.ltrans.o
 .data          0x0000000000000000        0x0 C:\Users\Maeoka\AppData\Local\Temp\ccAhU5mk.ltrans1.ltrans.o
 .data          0x0000000000000000        0x0 C:\Users\Maeoka\AppData\Local\Temp\ccAhU5mk.ltrans2.ltrans.o
 .data          0x0000000000000000        0x0 C:\Users\Maeoka\AppData\Local\Temp\ccAhU5mk.ltrans4.ltrans.o
 .data          0x0000000000000000        0x0 C:\Users\Maeoka\AppData\Local\Temp\ccAhU5mk.ltrans5.ltrans.o
 .data          0x0000000000000000        0x0 C:\Users\Maeoka\AppData\Local\Temp\ccAhU5mk.ltrans6.ltrans.o
 .data          0x0000000000000000        0x0 C:\Users\Maeoka\AppData\Local\Temp\ccAhU5mk.ltrans7.ltrans.o
 .data          0x0000000000000000        0x0 C:\Users\Maeoka\AppData\Local\Temp\ccAhU5mk.ltrans8.ltrans.o
 .bss           0x0000000000000000        0x0 C:\Users\Maeoka\AppData\Local\Temp\ccAhU5mk.ltrans10.ltrans.o
 .data          0x0000000000000000        0x0 C:\Users\Maeoka\AppData\Local\Temp\ccAhU5mk.ltrans11.ltrans.o
 .data          0x0000000000000000        0x0 C:\Users\Maeoka\AppData\Local\Temp\ccAhU5mk.ltrans12.ltrans.o
 .data          0x0000000000000000        0x0 C:\Users\Maeoka\AppData\Local\Temp\ccAhU5mk.ltrans14.ltrans.o
 .data          0x0000000000000000        0x0 C:\Users\Maeoka\AppData\Local\Temp\ccAhU5mk.ltrans15.ltrans.o
 .data          0x0000000000000000        0x0 c:/mwsdk/tools/ba-elf-ba2-r36379/bin/../lib/gcc/ba-elf/4.7.4/../../../../ba-elf/lib/mcpu_jn51xx_sizeopt\libc.a(lib_a-memcmp.o)
 .bss           0x0000000000000000        0x0 c:/mwsdk/tools/ba-elf-ba2-r36379/bin/../lib/gcc/ba-elf/4.7.4/../../../../ba-elf/lib/mcpu_jn51xx_sizeopt\libc.a(lib_a-memcmp.o)
 .data          0x0000000000000000        0x0 c:/mwsdk/tools/ba-elf-ba2-r36379/bin/../lib/gcc/ba-elf/4.7.4/../../../../ba-elf/lib/mcpu_jn51xx_sizeopt\libc.a(lib_a-memcpy.o)
 .bss           0x0000000000000000        0x0 c:/mwsdk/tools/ba-elf-ba2-r36379/bin/../lib/gcc/ba-elf/4.7.4/../../../../ba-elf/lib/mcpu_jn51xx_sizeopt\libc.a(lib_a-memcpy.o)
 .data          0x0000000000000000        0x0 c:/mwsdk/tools/ba-elf-ba2-r36379/bin/../lib/gcc/ba-elf/4.7.4/../../../../ba-elf/lib/mcpu_jn51xx_sizeopt\libc.a(lib_a-memset.o)
 .bss           0x0000000000000000        0x0 c:/mwsdk/tools/ba-elf-ba2-r36379/bin/../lib/gcc/ba-elf/4.7.4/../../../../ba-elf/lib/mcpu_jn51xx_sizeopt\libc.a(lib_a-memset.o)
 .data          0x0000000000000000        0x0 c:/mwsdk/tools/ba-elf-ba2-r36379/bin/../lib/gcc/ba-elf/4.7.4/mcpu_jn51xx_sizeopt\libgcc.a(__udivsi3.o)
 .bss           0x0000000000000000        0x0 c:/mwsdk/tools/ba-elf-ba2-r36379/bin/../lib/gcc/ba-elf/4.7.4/mcpu_jn51xx_sizeopt\libgcc.a(__udivsi3.o)
 .data          0x0000000000000000        0x0 c:/mwsdk/tools/ba-elf-ba2-r36379/bin/../lib/gcc/ba-elf/4.7.4/mcpu_jn51xx_sizeopt\libgcc.a(__divsi3.o)
 .bss           0x0000000000000000        0x0 c:/mwsdk/tools/ba-elf-ba2-r36379/bin/../lib/gcc/ba-elf/4.7.4/mcpu_jn51xx_sizeopt\libgcc.a(__divsi3.o)
 .data          0x0000000000000000        0x0 c:/mwsdk/tools/ba-elf-ba2-r36379/bin/../lib/gcc/ba-elf/4.7.4/mcpu_jn51xx_sizeopt\libgcc.a(__umodsi3.o)
 .bss           0x0000000000000000        0x0 c:/mwsdk/tools/ba-elf-ba2-r36379/bin/../lib/gcc/ba-elf/4.7.4/mcpu_jn51xx_sizeopt\libgcc.a(__umodsi3.o)
 .text          0x0000000000000000        0x0 ToCoNet_event.o (symbol from plugin)
 .text          0x0000000000000000        0x0 ToCoNet_main.o (symbol from plugin)
 .text          0x0000000000000000        0x0 ToCoNet_utils.o (symbol from plugin)
 .text          0x0000000000000000        0x0 ToCoNet_mod_Tx.o (symbol from plugin)
 .text          0x0000000000000000        0x0 ToCoNet_mod_TxRxQueue.o (symbol from plugin)
 .text          0x0000000000000000        0x0 ToCoNet_mod_Nwk_Common.o (symbol from plugin)
 .text          0x0000000000000000        0x0 ToCoNet_mod_Channel_Mgr.o (symbol from plugin)
 .text          0x0000000000000000        0x0 Version.o (symbol from plugin)
 .text          0x0000000000000000        0x0 AppQueueApi_ToCoNet.o (symbol from plugin)
 .text          0x0000000000000000        0x0 AppStart.o (symbol from plugin)
 .text          0x0000000000000000        0x0 getMacAddr.o (symbol from plugin)
 .text          0x0000000000000000        0x0 mac.o (symbol from plugin)
 .text          0x0000000000000000        0x0 AES_CCM.o (symbol from plugin)
 .text          0x0000000000000000        0x0 no_ack_handler.o (symbol from plugin)
 .text          0x0000000000000000        0x0 Version.o (symbol from plugin)
 .text          0x0000000000000000        0x0 serial.o (symbol from plugin)
 .text          0x0000000000000000        0x0 uart.o (symbol from plugin)
 .text          0x0000000000000000        0x0 ByteQueue.o (symbol from plugin)
 .text          0x0000000000000000        0x0 ccitt8.o (symbol from plugin)
 .text          0x0000000000000000        0x0 fprintf.o (symbol from plugin)
 .text          0x0000000000000000        0x0 sprintf.o (symbol from plugin)
 .text          0x0000000000000000        0x0 utils.o (symbol from plugin)
 .text          0x0000000000000000        0x0 ccm.o (symbol from plugin)
 .text          0x0000000000000000        0x0 Version.o (symbol from plugin)
 .text          0x0000000000000000        0x0 aescrypt.o (symbol from plugin)
 .text          0x0000000000000000        0x0 aeskey.o (symbol from plugin)
 .text          0x0000000000000000        0x0 aestab.o (symbol from plugin)
 .text          0x0000000000000000        0x0 AppApi.o (symbol from plugin)
 .text          0x0000000000000000        0x0 AppApiSleep.o (symbol from plugin)
 .text          0x0000000000000000        0x0 mac_main.o (symbol from plugin)
 .text          0x0000000000000000        0x0 mac_mcps.o (symbol from plugin)
 .text          0x0000000000000000        0x0 mac_mlme.o (symbol from plugin)
 .text          0x0000000000000000        0x0 mac_pib.o (symbol from plugin)
 .text          0x0000000000000000        0x0 mac_pib_mlme.o (symbol from plugin)
 .text          0x0000000000000000        0x0 mac_pmic.o (symbol from plugin)
 .text          0x0000000000000000        0x0 mac_ind.o (symbol from plugin)
 .text          0x0000000000000000        0x0 mac_scan.o (symbol from plugin)
 .text          0x0000000000000000        0x0 mac_lp.o (symbol from plugin)
 .text          0x0000000000000000        0x0 MCPS.o (symbol from plugin)
 .text          0x0000000000000000        0x0 phy_pib.o (symbol from plugin)
 .text          0x0000000000000000        0x0 TAM.o (symbol from plugin)
 .text          0x0000000000000000        0x0 TAMCO.o (symbol from plugin)
 .text          0x0000000000000000        0x0 TAMDE.o (symbol from plugin)
 .text          0x0000000000000000        0x0 TAM_MEM.o (symbol from plugin)
 .text          0x0000000000000000        0x0 TAM_MLME.o (symbol from plugin)
 .text          0x0000000000000000        0x0 TAM_TAH.o (symbol from plugin)
 .text          0x0000000000000000        0x0 TAM_TAI.o (symbol from plugin)
 .text          0x0000000000000000        0x0 TAM_TAT.o (symbol from plugin)
 .text          0x0000000000000000        0x0 TAMcommon.o (symbol from plugin)
 .text          0x0000000000000000        0x0 TAMevent.o (symbol from plugin)
 .text          0x0000000000000000        0x0 TAMqueue.o (symbol from plugin)
 .text          0x0000000000000000        0x0 TAMrxEnable.o (symbol from plugin)
 .text          0x0000000000000000        0x0 TAMsecurity.o (symbol from plugin)
 .text          0x0000000000000000        0x0 TAMsideways.o (symbol from plugin)
 .text          0x0000000000000000        0x0 TAMtime.o (symbol from plugin)
 .text          0x0000000000000000        0x0 TAM_AES.o (symbol from plugin)
 .text          0x0000000000000000        0x0 Endian.o (symbol from plugin)
 .text          0x0000000000000000        0x0 mac_acl.o (symbol from plugin)
 .text          0x0000000000000000        0x0 mac_misc.o (symbol from plugin)
 .text          0x0000000000000000        0x0 tsv_main.o (symbol from plugin)
 .text          0x0000000000000000        0x0 xcv_main.o (symbol from plugin)
 .text          0x0000000000000000        0x0 xcv_access.o (symbol from plugin)
 .text          0x0000000000000000        0x0 xcv_isr.o (symbol from plugin)
 .text          0x0000000000000000        0x0 AEScoprocessorCCM.o (symbol from plugin)
 .text          0x0000000000000000        0x0 AES_CCM_Star.o (symbol from plugin)
 .text          0x0000000000000000        0x0 AEScoprocessorAPI.o (symbol from plugin)
 .text          0x0000000000000000        0x0 AHI_Analogue.o (symbol from plugin)
 .text          0x0000000000000000        0x0 AHI_Dio.o (symbol from plugin)
 .text          0x0000000000000000        0x0 AHI_Reset.o (symbol from plugin)
 .text          0x0000000000000000        0x0 AHI_Spi.o (symbol from plugin)
 .text          0x0000000000000000        0x0 AHI_System.o (symbol from plugin)
 .text          0x0000000000000000        0x0 AHI_Timer.o (symbol from plugin)
 .text          0x0000000000000000        0x0 AHI_TimerInt.o (symbol from plugin)
 .text          0x0000000000000000        0x0 AHI_Uart.o (symbol from plugin)
 .text          0x0000000000000000        0x0 AHI_WakeTimer.o (symbol from plugin)
 .text          0x0000000000000000        0x0 AHI_Flash.o (symbol from plugin)
 .text          0x0000000000000000        0x0 AHI_Infrared.o (symbol from plugin)
 .text          0x0000000000000000        0x0 InternalFlashApi.o (symbol from plugin)
 .text          0x0000000000000000        0x0 AHI_FlashIndexSector.o (symbol from plugin)
 .text          0x0000000000000000        0x0 AHI_Si.o (symbol from plugin)
 .text          0x0000000000000000        0x0 AHI_TickTimer.o (symbol from plugin)
 .data          0x0000000000000000        0x0 c:/MWSDK/ChipLib/SW4063V1416/Components/Library\libHardwareApi_JN516x.a(AHI_Interrupt.o)
 .bss           0x0000000000000000        0x0 c:/MWSDK/ChipLib/SW4063V1416/Components/Library\libHardwareApi_JN516x.a(AHI_Interrupt.o)
 .text          0x0000000000000000        0x0 AHI_Init.o (symbol from plugin)
 .text          0x0000000000000000        0x0 AHI_SpiSlave.o (symbol from plugin)
 .text          0x0000000000000000        0x0 MicroInt_ba.o (symbol from plugin)
 .text          0x0000000000000000        0x0 c:/MWSDK/ChipLib/SW4063V1416/Components/Library\libMicroSpecific_JN516x.a(MicroSyscall_ba.o)
 .data          0x0000000000000000        0x0 c:/MWSDK/ChipLib/SW4063V1416/Components/Library\libMicroSpecific_JN516x.a(MicroSyscall_ba.o)
 .bss           0x0000000000000000        0x0 c:/MWSDK/ChipLib/SW4063V1416/Components/Library\libMicroSpecific_JN516x.a(MicroSyscall_ba.o)
 .text          0x0000000000000000        0x0 Heap.o (symbol from plugin)
 .text          0x0000000000000000        0x0 c:/MWSDK/ChipLib/SW4063V1416/Components/Library\libBoot_JN516x.a(ExceptionHandler.o)
 .data          0x0000000000000000        0x0 c:/MWSDK/ChipLib/SW4063V1416/Components/Library\libBoot_JN516x.a(ExceptionHandler.o)
 .bss           0x0000000000000000        0x0 c:/MWSDK/ChipLib/SW4063V1416/Components/Library\libBoot_JN516x.a(ExceptionHandler.o)
 .text          0x0000000000000000        0x0 AppHousekeeping.o (symbol from plugin)
 .text          0x0000000000000000        0x0 AEScoprocessorAPIinterrupts.o (symbol from plugin)

Memory Configuration

Name             Origin             Length             Attributes
flash            0x0000000000080000 0x0000000000028000
ram              0x000000000400004c 0x0000000000007fb4
*default*        0x0000000000000000 0xffffffffffffffff

Linker script and memory map

LOAD objs_BLUE/Main.o
LOAD C:\Users\Maeoka\AppData\Local\Temp\ccAhU5mk.ltrans0.ltrans.o
LOAD C:\Users\Maeoka\AppData\Local\Temp\ccAhU5mk.ltrans1.ltrans.o
LOAD C:\Users\Maeoka\AppData\Local\Temp\ccAhU5mk.ltrans2.ltrans.o
LOAD C:\Users\Maeoka\AppData\Local\Temp\ccAhU5mk.ltrans3.ltrans.o
LOAD C:\Users\Maeoka\AppData\Local\Temp\ccAhU5mk.ltrans4.ltrans.o
LOAD C:\Users\Maeoka\AppData\Local\Temp\ccAhU5mk.ltrans5.ltrans.o
LOAD C:\Users\Maeoka\AppData\Local\Temp\ccAhU5mk.ltrans6.ltrans.o
LOAD C:\Users\Maeoka\AppData\Local\Temp\ccAhU5mk.ltrans7.ltrans.o
LOAD C:\Users\Maeoka\AppData\Local\Temp\ccAhU5mk.ltrans8.ltrans.o
LOAD C:\Users\Maeoka\AppData\Local\Temp\ccAhU5mk.ltrans9.ltrans.o
LOAD C:\Users\Maeoka\AppData\Local\Temp\ccAhU5mk.ltrans10.ltrans.o
LOAD C:\Users\Maeoka\AppData\Local\Temp\ccAhU5mk.ltrans11.ltrans.o
LOAD C:\Users\Maeoka\AppData\Local\Temp\ccAhU5mk.ltrans12.ltrans.o
LOAD C:\Users\Maeoka\AppData\Local\Temp\ccAhU5mk.ltrans13.ltrans.o
LOAD C:\Users\Maeoka\AppData\Local\Temp\ccAhU5mk.ltrans14.ltrans.o
LOAD C:\Users\Maeoka\AppData\Local\Temp\ccAhU5mk.ltrans15.ltrans.o
LOAD c:/mwsdk/tools/ba-elf-ba2-r36379/bin/../lib/gcc/ba-elf/4.7.4/../../../../ba-elf/lib/mcpu_jn51xx_sizeopt\libc.a
LOAD c:/mwsdk/tools/ba-elf-ba2-r36379/bin/../lib/gcc/ba-elf/4.7.4/mcpu_jn51xx_sizeopt\libgcc.a
LOAD c:/mwsdk/tools/ba-elf-ba2-r36379/bin/../lib/gcc/ba-elf/4.7.4/../../../../ba-elf/lib/mcpu_jn51xx_sizeopt\libc.a
LOAD c:/MWSDK/Wks_TWELITE/basic_code/../../TWENET/L1200/lib/libTWENET_BLUE.a
LOAD c:/MWSDK/Wks_TWELITE/basic_code/../../TWENET/L1200/lib/libTWENEText_BLUE.a
LOAD c:/MWSDK/Wks_TWELITE/basic_code/../../TWENET/L1200/lib/libTWENETutils_BLUE.a
START GROUP
LOAD c:/MWSDK/ChipLib/SW4063V1416/Components/Library\libAppApi_JN516x.a
LOAD c:/MWSDK/ChipLib/SW4063V1416/Components/Library\libMAC_JN516x.a
LOAD c:/MWSDK/ChipLib/SW4063V1416/Components/Library\libTimerServer_JN516x.a
LOAD c:/MWSDK/ChipLib/SW4063V1416/Components/Library\libTOF_JN516x.a
LOAD c:/MWSDK/ChipLib/SW4063V1416/Components/Library\libXcv_JN516x.a
LOAD c:/MWSDK/ChipLib/SW4063V1416/Components/Library\libAes_JN516x.a
LOAD c:/MWSDK/ChipLib/SW4063V1416/Components/Library\libHardwareApi_JN516x.a
LOAD c:/MWSDK/ChipLib/SW4063V1416/Components/Library\libMicroSpecific_JN516x.a
LOAD c:/MWSDK/ChipLib/SW4063V1416/Components/Library\libBoot_JN516x.a
LOAD c:/MWSDK/ChipLib/SW4063V1416/Components/Library\libPDM_EEPROM_JN516x_NO_RTOS.a
LOAD c:/MWSDK/Wks_TWELITE/basic_code/../../TWENET/L1200/lib/libTWENET_BLUE.a
LOAD c:/MWSDK/Wks_TWELITE/basic_code/../../TWENET/L1200/lib/libTWENEText_BLUE.a
LOAD c:/MWSDK/Wks_TWELITE/basic_code/../../TWENET/L1200/lib/libTWENETutils_BLUE.a
END GROUP
LOAD c:/mwsdk/tools/ba-elf-ba2-r36379/bin/../lib/gcc/ba-elf/4.7.4/../../../../ba-elf/lib/mcpu_jn51xx_sizeopt\libc.a
LOAD c:/mwsdk/tools/ba-elf-ba2-r36379/bin/../lib/gcc/ba-elf/4.7.4/mcpu_jn51xx_sizeopt\libgcc.a
LOAD c:/mwsdk/tools/ba-elf-ba2-r36379/bin/../lib/gcc/ba-elf/4.7.4/../../../../ba-elf/lib/mcpu_jn51xx_sizeopt\libc.a
                0x0000000000000800                _stack_size = 0x800
                0x0000000000080038                _exception_vsr_table = 0x80038
                0x0000000004000000                pSPIflashFncTable = 0x4000000
                0x0000000000000800                _stack_size = 0x800
                0x0000000000000044                restore_state = 0x44
                0x000000000000004a                bZSPIWaitWIPClear = 0x4a
                0x0000000000000050                u16ZSPIflashRDID = 0x50
                0x0000000000000056                u8SelectFlashChipType = 0x56
                0x000000000000005c                memcpy = 0x5c
                0x0000000000000066                vBootFlashProg = 0x66
                [0x0000000000000d16]                _minimum_heap_size = DEFINED (_minimum_heap_size)?_minimum_heap_size:0xd16
                0x0000000000000000                _SwConfig = (DEFINED (g_bSWConf_Debug) | (DEFINED (g_bSWConf_AltDebugPort) << 0x1))

.version        0x000000000007fffc        0x4
                0x000000000007fffc        0x4 LONG 0x4030008

.bir            0x0000000000080000       0x10
                0x0000000000080000                _flash_start = ABSOLUTE (.)
                0x0000000000080000                _flash_beg = ABSOLUTE (.)
                0x0000000000080000        0x4 LONG 0x12345678
                0x0000000000080004        0x4 LONG 0x11223344
                0x0000000000080008        0x4 LONG 0x55667788
                0x000000000008000c        0x1 BYTE 0x8
                0x000000000008000d        0x1 BYTE 0x1
                0x000000000008000e        0x2 SHORT 0x0

.flashheader    0x0000000000080010       0x28
                0x0000000000080010        0x4 LONG 0x0
                0x0000000000080014        0x4 LONG 0x0
                0x0000000000080018        0x4 LONG 0x0
                0x000000000008001c        0x2 SHORT 0x0
                0x000000000008001e        0x2 SHORT 0x0 ABSOLUTE (_SwConfig)
                0x0000000000080020                _enc_start = ABSOLUTE (.)
                0x0000000000080020        0x4 LONG 0xa128 ABSOLUTE (_image_len)
                0x0000000000080024        0x4 LONG 0x8a118 ABSOLUTE (_flash_data_start)
                0x0000000000080028        0x2 SHORT 0x13 ((ABSOLUTE (_ram_data_start) / 0x4) & 0xffff)
                0x000000000008002a        0x2 SHORT 0x4 ((ABSOLUTE (_ram_data_len) / 0x4) & 0xffff)
                0x000000000008002c        0x2 SHORT 0x17 ((ABSOLUTE (_bss_start) / 0x4) & 0xffff)
                0x000000000008002e        0x2 SHORT 0x667 ((ABSOLUTE (_bss_len) / 0x4) & 0xffff)
                0x0000000000080030        0x4 LONG 0x843bc ABSOLUTE (AppWarmStart)
                0x0000000000080034        0x4 LONG 0x89770 ABSOLUTE (AppColdStart)
                0x0000000000000000                _enc_offset = (_enc_start & 0xf)
                0x0000000000000044                PROVIDE (vException_BusError, restore_state)
                0x0000000000000044                PROVIDE (vException_UnalignedAccess, restore_state)
                0x0000000000000044                PROVIDE (vException_IllegalInstruction, restore_state)
                0x0000000000000044                PROVIDE (vException_SysCall, restore_state)
                0x0000000000000044                PROVIDE (vException_Trap, restore_state)
                0x0000000000000044                PROVIDE (vException_StackOverflow, restore_state)
                0x0000000000080038                . = ABSOLUTE (_exception_vsr_table)

.vsr_table      0x0000000000080038       0x18
                0x0000000000080038        0x4 LONG 0x44 ABSOLUTE (vException_BusError)
                0x000000000008003c        0x4 LONG 0x44 ABSOLUTE (vException_UnalignedAccess)
                0x0000000000080040        0x4 LONG 0x44 ABSOLUTE (vException_IllegalInstruction)
                0x0000000000080044        0x4 LONG 0x44 ABSOLUTE (vException_SysCall)
                0x0000000000080048        0x4 LONG 0x44 ABSOLUTE (vException_Trap)
                0x000000000008004c        0x4 LONG 0x44 ABSOLUTE (vException_StackOverflow)

.vsr_handlers   0x0000000000080050       0xaa
 *(.vsr_handlers)
 .vsr_handlers  0x0000000000080050       0xaa c:/MWSDK/ChipLib/SW4063V1416/Components/Library\libBoot_JN516x.a(ExceptionHandler.o)
                0x0000000000080050                _exception_external_interrupt
                0x00000000000800f8                _default_vsr_dummy

.rodata         0x00000000000800fc      0x464
 *(.rodata*)
 .rodata        0x00000000000800fc       0xd4 C:\Users\Maeoka\AppData\Local\Temp\ccAhU5mk.ltrans0.ltrans.o
                0x00000000000800fc                s_aprScanHandleEvt.10453
                0x000000000008012c                apvActionCalls
                0x00000000000801b4                aprLPBMacVectorRamTable
                0x00000000000801c8                psTamMacContext
                0x00000000000801cc                psTAMcontext
 .rodata.str1.1
                0x00000000000801d0        0xf C:\Users\Maeoka\AppData\Local\Temp\ccAhU5mk.ltrans1.ltrans.o
 .rodata        0x00000000000801df       0x19 C:\Users\Maeoka\AppData\Local\Temp\ccAhU5mk.ltrans1.ltrans.o
                0x00000000000801df                gbHighPowerMode
                0x00000000000801e0                gu8ModuleID
 .rodata        0x00000000000801f8       0x2c C:\Users\Maeoka\AppData\Local\Temp\ccAhU5mk.ltrans2.ltrans.o
                0x00000000000801f8                psTamXcvContext
                0x00000000000801fc                CSWTCH.35.20683.20683
                0x0000000000080210                au32TimerBaseAddress
 .rodata        0x0000000000080224       0x28 C:\Users\Maeoka\AppData\Local\Temp\ccAhU5mk.ltrans3.ltrans.o
                0x0000000000080224                aeTimerInterruptDeviceIDlut.20736
 .rodata        0x000000000008024c       0x9a C:\Users\Maeoka\AppData\Local\Temp\ccAhU5mk.ltrans4.ltrans.o
 .rodata.str1.1
                0x00000000000802e6       0x1a C:\Users\Maeoka\AppData\Local\Temp\ccAhU5mk.ltrans5.ltrans.o
 .rodata        0x0000000000080300        0x4 C:\Users\Maeoka\AppData\Local\Temp\ccAhU5mk.ltrans5.ltrans.o
 .rodata        0x0000000000080304        0x6 C:\Users\Maeoka\AppData\Local\Temp\ccAhU5mk.ltrans6.ltrans.o
                0x0000000000080304                aeXcvPhyEvtToScanEvt.5394.10456
 *fill*         0x000000000008030a        0x2 00
 .rodata        0x000000000008030c       0x14 C:\Users\Maeoka\AppData\Local\Temp\ccAhU5mk.ltrans7.ltrans.o
                0x000000000008030c                au32UartAddrOffset
 .rodata.str1.1
                0x0000000000080320        0xa C:\Users\Maeoka\AppData\Local\Temp\ccAhU5mk.ltrans8.ltrans.o
                                         0x21 (size before relaxing)
 .rodata.str1.1
                0x000000000008032a       0x22 C:\Users\Maeoka\AppData\Local\Temp\ccAhU5mk.ltrans9.ltrans.o
 .rodata        0x000000000008034c       0x38 C:\Users\Maeoka\AppData\Local\Temp\ccAhU5mk.ltrans9.ltrans.o
                0x000000000008034c                asStateFuncTbl.2402
 .rodata        0x0000000000080384       0x18 C:\Users\Maeoka\AppData\Local\Temp\ccAhU5mk.ltrans10.ltrans.o
 .rodata        0x000000000008039c      0x131 C:\Users\Maeoka\AppData\Local\Temp\ccAhU5mk.ltrans11.ltrans.o
 .rodata.str1.1
                0x00000000000804cd        0x6 C:\Users\Maeoka\AppData\Local\Temp\ccAhU5mk.ltrans13.ltrans.o
                                         0x17 (size before relaxing)
 .rodata.str1.1
                0x00000000000804d3       0x11 C:\Users\Maeoka\AppData\Local\Temp\ccAhU5mk.ltrans15.ltrans.o
 .rodata        0x00000000000804e4       0x7c C:\Users\Maeoka\AppData\Local\Temp\ccAhU5mk.ltrans15.ltrans.o
                0x0000000000080518                u32MacLow_TOCOS
                0x000000000008051c                u32MacHigh_TOCOS

.text           0x0000000000080560     0x9bb6
 *(.text*)
 .text          0x0000000000080560      0xba4 C:\Users\Maeoka\AppData\Local\Temp\ccAhU5mk.ltrans0.ltrans.o
                0x0000000000080560                eWBRTTxDone.10110
                0x000000000008057e                vTAMCOframeTXgoingIdle
                0x0000000000080597                vTAMCOframeTXcap
                0x00000000000805bb                eWCoRRxDone.10101
                0x0000000000080665                eWBcnRxDone.10113
                0x0000000000080c52                vTAMCOframeRXcap
                0x0000000000080c64                vTAMCOframeRXgoingIdle
                0x0000000000080c7a                vTAMCOframeRXnobeacon
                0x0000000000080c8c                vTAMDEframeRX
                0x0000000000080cb4                vTAMDEframeRXtrackingDR
                0x0000000000080cf7                vTAMDEframePreSyncReq
                0x0000000000080d0f                vTAMCOframeTXbeacon
                0x0000000000080dd6                vTAMDEframeRXsyncReq
                0x0000000000081025                vTAMDEint1FiredTrackingCAPgts
                0x00000000000810d6                eWONTTxDone.10107
 .text          0x0000000000081104      0x851 C:\Users\Maeoka\AppData\Local\Temp\ccAhU5mk.ltrans1.ltrans.o
                0x0000000000081104                UART_vHandleUartInterrupt.4441
                0x000000000008118f                SERIAL_vTxReady
                0x00000000000811c7                vAppQApiPostHwIntT.3022
                0x0000000000081244                vRxChar.4341
                0x0000000000081295                vProcessEvCore.1357
                0x0000000000081442                vXCV_IntHandlerPhy
                0x00000000000814f4                vScanHandleTimer.9710
                0x00000000000814f9                vXCV_IntHandlerBbc
                0x000000000008159c                vTAMCOint2Fired
                0x00000000000815bd                u8TAM_AES_WriteAuxilliarySecurityHeaderIntoBuffer
                0x000000000008162f                phy_ePibSet.part.1.11920
                0x0000000000081677                u32AHI_ReadIndexSectorBits.constprop.9
                0x00000000000816d8                vTAIsetCapTime
                0x00000000000816f9                vTAIsetRxEnableTime
                0x000000000008171a                vDoGoActive.16401
                0x000000000008173c                vTAMRXEint2Fired
                0x0000000000081772                bAHI_ReadMACID
                0x00000000000817b8                vMLMEbeaconNotify
                0x0000000000081916                vSetPHYfromMacValue.13235
                0x0000000000081948                vTAMDEint1FiredWaitDR
 .text.unlikely
                0x0000000000081955       0x79 C:\Users\Maeoka\AppData\Local\Temp\ccAhU5mk.ltrans1.ltrans.o
                0x0000000000081955                Delay.20353.constprop.18
 .text          0x00000000000819ce      0x2d2 C:\Users\Maeoka\AppData\Local\Temp\ccAhU5mk.ltrans2.ltrans.o
                0x00000000000819ce                u32AppApiDefInit
                0x0000000000081c39                vProcessEvCoreMac
 .text.unlikely
                0x0000000000081ca0      0x484 C:\Users\Maeoka\AppData\Local\Temp\ccAhU5mk.ltrans2.ltrans.o
                0x0000000000081ca0                ToCoNet_vStart
 .text          0x0000000000082124      0xa8c C:\Users\Maeoka\AppData\Local\Temp\ccAhU5mk.ltrans3.ltrans.o
                0x0000000000082139                mac_vLPBStartTimer
                0x000000000008239b                vProcessEvCoreTx.2338
                0x0000000000082485                vPrintString.4580.constprop.47
                0x0000000000082518                vPrintInteger.4586.constprop.46
                0x00000000000825c0                vAHI_ProtocolPower.constprop.39
                0x00000000000825ce                XCV_vCtor.constprop.37
                0x0000000000082733                bAHI_SetClockRate
                0x000000000008283e                bAES_CCMstar
                0x000000000008290a                bAES_CCM_DecodeKey
                0x00000000000829c6                pvHeap_Alloc
                0x00000000000829c9                u32AHI_Init
                0x0000000000082a8b                vMicroIntRestoreState
                0x0000000000082a97                vAHI_WakeTimerStop.part.3.21015
                0x0000000000082ab7                mac_vLPBStopTimer
                0x0000000000082ac1                vAHI_UartSetRTSCTS.part.15.20796
                0x0000000000082ae8                vAHI_UartReset.part.4.20769
                0x0000000000082b20                vAHI_UartSetControl.part.2.20753
                0x0000000000082b71                vAHI_UartSetBaudDivisor.part.1.20749
 .text.unlikely
                0x0000000000082bb0       0xb0 C:\Users\Maeoka\AppData\Local\Temp\ccAhU5mk.ltrans3.ltrans.o
                0x0000000000082bb0                vAHI_TimerEnable.part.1.20550.constprop.22
                0x0000000000082c1b                vAHI_MemoryHold.20449
 .text          0x0000000000082c60      0xbda C:\Users\Maeoka\AppData\Local\Temp\ccAhU5mk.ltrans4.ltrans.o
                0x0000000000082c60                vAHI_IntHandlerTimer4
                0x0000000000082c81                vAHI_IntHandlerTimer3
                0x0000000000082ca2                vAHI_IntHandlerTimer1
                0x0000000000082cc2                vAHI_IntHandlerTimer0
                0x0000000000082ce3                vTimerCallback.20335
                0x0000000000082cee                vAHI_IntHandlerSpiMaster
                0x0000000000082d14                vAHI_IntHandlerAnalogPeriph
                0x0000000000082d34                vTTIBLETimerExpired
                0x0000000000082d3f                vAHI_WatchdogStop
                0x0000000000082d56                vAHI_CpuDoze
                0x0000000000082d69                vAHI_DioSetOutput
                0x0000000000082d7d                vAHI_DioSetDirection
                0x0000000000082d91                vACI_CmdWaitBusy
                0x0000000000082df5                vACI_OptimisedCcmStar
                0x000000000008300d                vTAIdisableInterrupt
                0x0000000000083026                vUpdateRegisters.19707
                0x000000000008306d                psRemove.part.0.19657
                0x000000000008309c                vMAC_MISCpollConfirm
                0x00000000000830cd                MAC_u8AclFindInfo
                0x00000000000831f7                vTASretrieveSecurity
                0x0000000000083219                MAC_bLookUpKeyDescriptor.17209
                0x0000000000083293                u8TSCframeIncrease
                0x00000000000832cc                vTSCpostTransmitUpdate
                0x00000000000832fc                vCopyToDataFromMacAddr.17119
                0x000000000008332f                bTSCgetOutgoingInfo
                0x0000000000083438                vDoGoOff.16399
                0x0000000000083452                psTAQsearchFifo
                0x000000000008349b                bTAQremoveFromFifo
                0x00000000000834d8                vTTITransactionTimerExpired
                0x0000000000083501                vTAMinsertEvent
                0x0000000000083567                vTTITimer2Expired
                0x000000000008356b                vTTITimer1Expired
                0x000000000008356f                vTAM_TxRetryTimeout
                0x0000000000083573                vTACsetTxFrameDefaults
                0x0000000000083599                u8TACgetHeaderSize
                0x00000000000835d6                bUpdateTime.15437
                0x0000000000083611                vTACbuildBeacon
                0x0000000000083819                u32TACpayloadToU32M
 .text.unlikely
                0x000000000008383a       0x11 C:\Users\Maeoka\AppData\Local\Temp\ccAhU5mk.ltrans4.ltrans.o
                0x000000000008383a                vStartXtal32kExternalRc.20349
 .text          0x000000000008384b      0xa7f C:\Users\Maeoka\AppData\Local\Temp\ccAhU5mk.ltrans5.ltrans.o
                0x000000000008384b                vAHI_IntHandlerTickTimer
                0x0000000000083892                vTACintRXheader
                0x000000000008408d                eGenRxHdrDone.10104
                0x000000000008409d                vHnd_E_STATE_FINISH_TX_SUCCESS.2351
                0x0000000000084143                eAppApiDefPlmeSet
                0x000000000008419c                _ToCoNet_bRfChChannel
                0x0000000000084203                ToCoNet_ChMgr_bCh_Reconfig
                0x000000000008426b                vAppApiDefMcpsRequest
                0x0000000000084296                vAppApiDefMlmeRequest
                0x00000000000842c1                pvAppApiDefGetMacHandle
 .text.unlikely
                0x00000000000842ca       0x1d C:\Users\Maeoka\AppData\Local\Temp\ccAhU5mk.ltrans5.ltrans.o
                0x00000000000842ca                Mac_vReset
 *fill*         0x00000000000842e7        0x1 00
 .text          0x00000000000842e8      0xa28 C:\Users\Maeoka\AppData\Local\Temp\ccAhU5mk.ltrans6.ltrans.o
                0x00000000000842e8                vPostDcfm.10097
                0x00000000000843bc                AppWarmStart
                0x0000000000084432                vSetNextChannel.10145
                0x000000000008448b                MAC_vHandleMlmeReqRsp
                0x0000000000084c39                vTAMDEint1FiredTracking
                0x0000000000084ca9                vTAMDEint1FiredSyncReq
 .text          0x0000000000084d10      0xa4e C:\Users\Maeoka\AppData\Local\Temp\ccAhU5mk.ltrans7.ltrans.o
                0x0000000000084d10                SERIAL_bTxChar
                0x0000000000084dbd                bTAM_AES_CCMstarPatch
                0x0000000000084f01                bTAM_AES_CCMstarPatch2006
                0x00000000000851e0                bTATsendFrame
                0x0000000000085233                vTrySendFromDirectCAP.12692
                0x000000000008524e                vTrySendFromDirectNoBeacon.12696
                0x0000000000085279                vTAMCOint1Fired
                0x0000000000085395                vTAMCOstartBeacon
                0x00000000000853d0                vStartStoreValues.12760
                0x0000000000085487                bStartCallback.12789
                0x00000000000854b6                vTAMCOint1FiredCAP
                0x0000000000085529                vTAMCOreqTXnoBeacon
                0x000000000008553b                vTAMCOreqTXinCAP
                0x0000000000085561                vTrySendUnslotted.13237
                0x000000000008557b                bSendDataRequest.13239
                0x000000000008568d                bProcessBeaconRX.13242
 .text          0x000000000008575e      0xb35 C:\Users\Maeoka\AppData\Local\Temp\ccAhU5mk.ltrans8.ltrans.o
                0x000000000008575e                vTAMRXEsetPhy
                0x0000000000085821                vTAHsetPhyState
                0x0000000000085851                vTACsetPHYfromMacValue
                0x0000000000085872                vTAMRXEsetReceiveForPibChange
                0x00000000000858b2                vMCPSframeReceived
                0x0000000000085975                ToCoNet_vInit
                0x0000000000085ca0                vExpireHead.19662
                0x0000000000085cd0                vMicroIntEnableOnly.constprop.60
                0x0000000000085cfc                QUEUE__u8RemoveItem
                0x0000000000085d56                vHnd_E_STATE_RUNNING.2377
                0x0000000000085fa8                QUEUE__vAddItem.constprop.59
                0x0000000000085fda                vHnd_E_STATE_IDLE.2361
                0x000000000008602f                vfPrintf.constprop.44
                0x00000000000861ca                vHnd_E_STATE_FINISH_TX_FAIL.2346
 .text.unlikely
                0x0000000000086293        0xf C:\Users\Maeoka\AppData\Local\Temp\ccAhU5mk.ltrans8.ltrans.o
                0x0000000000086293                u32AppQApiInitInt_PATCH
 .text          0x00000000000862a2      0xb30 C:\Users\Maeoka\AppData\Local\Temp\ccAhU5mk.ltrans9.ltrans.o
                0x00000000000862a2                TSV_eStart
                0x0000000000086386                eTAStransmitRequest
                0x0000000000086721                TSV_eOpen
                0x0000000000086729                vAppApiDefRestoreMacSettings
                0x00000000000867fa                vAppApiDefSaveMacSettings
                0x0000000000086857                mac_vLPBSleep
                0x000000000008691c                pvAppApiDefGetMacAddrLocation
                0x0000000000086925                eAppApiDefPlmeGet
                0x0000000000086977                vHnd_E_STATE_PREPARE_TX.2356
 *fill*         0x0000000000086dd2        0x2 00
 .text          0x0000000000086dd4      0x95c C:\Users\Maeoka\AppData\Local\Temp\ccAhU5mk.ltrans10.ltrans.o
                0x0000000000086dd4                vPMICassocReqTO_1.8534
                0x0000000000086e5c                vTAM_MCPSdataRequest
                0x0000000000086e9f                bTACcheckPANconflict
                0x0000000000086f58                vTAMDEstartSync
                0x0000000000086fd7                eTAMselect
                0x0000000000087118                MAC_pvCtor
                0x0000000000087533                vDeterminePowerState.13359
                0x00000000000875b7                vTAMDEint1FiredTrackingBeacon
                0x0000000000087657                vTAMDEint2FiredTrackingDR
                0x000000000008767c                vTAMDEframeTXtrackingDR
                0x00000000000876d5                vTAMDEint2FiredPollActive
                0x0000000000087709                vTAMDEreqTXnullTrackingCAP
                0x0000000000087722                vTAM_TxRetryTimer
 .text          0x0000000000087730      0xa0e C:\Users\Maeoka\AppData\Local\Temp\ccAhU5mk.ltrans11.ltrans.o
                0x0000000000087730                mac_vLPBAdjustBeaconOffset
                0x000000000008778d                mac_u32LPBGetBeaconTimeout
                0x0000000000087796                eWEnDTmrExpiry.10094
                0x00000000000877a1                eWEnDEdDone.10091
                0x00000000000877fc                eGenlDontCare.10088
                0x0000000000087801                eGenlIllegal.9713
                0x0000000000087808                u32GetTimer0
                0x000000000008780f                vSetTimer0
                0x000000000008781e                SPRINTF_bPutChar.4603
                0x000000000008785a                vHandlerPatch.4316
                0x0000000000087891                u8HwEventHandler.1713
                0x00000000000878b0                vTACu32ToPayloadM
                0x00000000000878c8                bTACframeInProgress
                0x00000000000878f2                bTACassessBeaconForPayload
                0x0000000000087943                bIsBbcSafeForTx
                0x0000000000087978                vTATwriteAclMaterialToHardware
                0x000000000008799d                vTATsetBLE
                0x00000000000879d4                vTATgetFramePayload
                0x00000000000879f1                eTATreadTXstatus
                0x0000000000087a37                vTAHsetPhyStateDirect.part.0.14578
                0x0000000000087a53                vMEMreturn
                0x0000000000087ac4                vTACinformOriginator
                0x0000000000087ae6                pvMEMget
                0x0000000000087b12                vTAMDEdetermineNullState
                0x0000000000087b2c                vTAMCOupdatePendingList
                0x0000000000087bfe                vTAMCOsetCoordinator
                0x0000000000087c24                vPhySetChannel
                0x0000000000087c3d                eScanHandleEvt.part.0.10124
                0x0000000000087c66                mac_eDcfmIndPost
                0x0000000000087c87                mac_psDcfmIndGetBuf
                0x0000000000087ca8                vMLMErxEnableConfirm
                0x0000000000087cda                vMLMEcommStatus
                0x0000000000087d3d                vMLMEcommStatusFromFrame
                0x0000000000087d81                vMLMEsyncLoss
                0x0000000000087db4                vPMICpostFailedAssocDcfm
                0x0000000000087dec                vPMICassocReqTO_2.8541
                0x0000000000087e03                MAC_vPibSetPanId
                0x0000000000087e1e                vHandleTofRequest.6647
                0x0000000000087e21                vAppApiDefSetPrbsSeed
                0x0000000000087e45                u8CCITT8
                0x0000000000087e6b                Mac_vInit
                0x0000000000087eb7                bAES_CCM_KeyReg
                0x0000000000087ef6                bFifoPush.3043
                0x0000000000087f2f                vAppQApiPostMlme.3029
                0x0000000000087f4e                vAppQApiPostMcps.3036
                0x0000000000087f69                pvFifoPull.3040
                0x0000000000087f90                psAppQApiGetMlmeBuffer.3026
                0x0000000000087f98                psAppQApiGetMcpsBuffer.3033
                0x0000000000087fa0                ToCoNet_vReg_mod_TxRxQueueMid
                0x0000000000088021                PRSEV_vSetState
                0x0000000000088031                PRSEV_u8Register
                0x0000000000088063                PRSEV_vProcessEv_core.1509
                0x00000000000880ff                PRSEV_vProcessEvPost
                0x0000000000088131                _PRSEV_vProcessEvSingle
 .text.unlikely
                0x000000000008813e        0xf C:\Users\Maeoka\AppData\Local\Temp\ccAhU5mk.ltrans11.ltrans.o
                0x000000000008813e                _PRSEV_vProcessEvSingleH
 .text          0x000000000008814d      0x605 C:\Users\Maeoka\AppData\Local\Temp\ccAhU5mk.ltrans12.ltrans.o
                0x000000000008814d                bAES_CCM_EncodeKey
                0x00000000000881fa                u8Write802_15_4HeaderIntoBuffer.18408
                0x000000000008835a                cbAppColdStart.part.1.1370
 .text.unlikely
                0x0000000000088752      0x108 C:\Users\Maeoka\AppData\Local\Temp\ccAhU5mk.ltrans12.ltrans.o
                0x0000000000088752                bStartXtal32k.20359
 .text          0x000000000008885a      0x794 C:\Users\Maeoka\AppData\Local\Temp\ccAhU5mk.ltrans13.ltrans.o
                0x000000000008885a                ToCoNet_vMain
                0x0000000000088f5a                ToCoNet_ChMgr_vCh_TxFin
                0x0000000000088f87                vHnd_E_STATE_WAIT_TX.2369
 *fill*         0x0000000000088fee        0x2 00
 .text          0x0000000000088ff0      0x780 C:\Users\Maeoka\AppData\Local\Temp\ccAhU5mk.ltrans14.ltrans.o
                0x0000000000088ff0                eGenTmrExpiry.10406
                0x0000000000089032                eWEDTEdDone.10409
                0x0000000000089056                TSV_eStop
                0x0000000000089114                bPMICdisassocReqSent.8530
                0x00000000000891ce                MAC_vHandleMcpsReqRsp
                0x000000000008925b                bMCPSframeTXcomplete.11141
                0x00000000000892b0                bSendSyncLoss.15372
                0x00000000000892c8                bPollReqSent.18968
                0x00000000000892e0                bTASsendCommStatusInd
                0x00000000000892f5                bAssocRespSent.8526
                0x0000000000089308                eTACprocessFrameTXcomplete
                0x0000000000089485                vTAMCOframeTXnobeacon
                0x000000000008949a                vTAMCOframeStarting
                0x00000000000894b3                vTAMDEframeTXDEnull
                0x00000000000894d6                vTAMDEframeTXtrackingCAPgts
                0x0000000000089502                bPMICassocReqSent.8522
                0x0000000000089584                bPMICassocReqPollSent.8537
                0x00000000000895d8                eWChCChanChgd.10121
 .text          0x0000000000089770      0x531 C:\Users\Maeoka\AppData\Local\Temp\ccAhU5mk.ltrans15.ltrans.o
                0x0000000000089770                AppColdStart
 .text          0x0000000000089ca1       0x25 c:/mwsdk/tools/ba-elf-ba2-r36379/bin/../lib/gcc/ba-elf/4.7.4/../../../../ba-elf/lib/mcpu_jn51xx_sizeopt\libc.a(lib_a-memcmp.o)
                0x0000000000089ca1                memcmp
 .text          0x0000000000089cc6       0x19 c:/mwsdk/tools/ba-elf-ba2-r36379/bin/../lib/gcc/ba-elf/4.7.4/../../../../ba-elf/lib/mcpu_jn51xx_sizeopt\libc.a(lib_a-memcpy.o)
 .text          0x0000000000089cdf       0x12 c:/mwsdk/tools/ba-elf-ba2-r36379/bin/../lib/gcc/ba-elf/4.7.4/../../../../ba-elf/lib/mcpu_jn51xx_sizeopt\libc.a(lib_a-memset.o)
                0x0000000000089cdf                memset
 *fill*         0x0000000000089cf1        0x3 00
 .text          0x0000000000089cf4      0x204 c:/mwsdk/tools/ba-elf-ba2-r36379/bin/../lib/gcc/ba-elf/4.7.4/mcpu_jn51xx_sizeopt\libgcc.a(__udivsi3.o)
                0x0000000000089cf4                __udivsi3
 .text          0x0000000000089ef8       0x30 c:/mwsdk/tools/ba-elf-ba2-r36379/bin/../lib/gcc/ba-elf/4.7.4/mcpu_jn51xx_sizeopt\libgcc.a(__divsi3.o)
                0x0000000000089ef8                __divsi3
 .text          0x0000000000089f28      0x1b0 c:/mwsdk/tools/ba-elf-ba2-r36379/bin/../lib/gcc/ba-elf/4.7.4/mcpu_jn51xx_sizeopt\libgcc.a(__umodsi3.o)
                0x0000000000089f28                __umodsi3
 .text          0x000000000008a0d8       0x27 c:/MWSDK/ChipLib/SW4063V1416/Components/Library\libHardwareApi_JN516x.a(AHI_Interrupt.o)
                0x000000000008a0d8                vAHI_InterruptSetPriority
                0x000000000008a0f6                vAHI_InterruptSetActivePriorityLevel
 .text.vMicroSyscall
                0x000000000008a0ff       0x17 c:/MWSDK/ChipLib/SW4063V1416/Components/Library\libMicroSpecific_JN516x.a(MicroSyscall_ba.o)
                0x000000000008a0ff                vMicroSyscall
                0x000000000008a116                _flash_end = ABSOLUTE (.)

.rela.dyn       0x000000000008a118        0x0
 .rela.text     0x0000000000000000        0x0 C:\Users\Maeoka\AppData\Local\Temp\ccAhU5mk.ltrans0.ltrans.o
 .rela.rodata   0x0000000000000000        0x0 C:\Users\Maeoka\AppData\Local\Temp\ccAhU5mk.ltrans0.ltrans.o
 .rela.text.unlikely
                0x0000000000000000        0x0 C:\Users\Maeoka\AppData\Local\Temp\ccAhU5mk.ltrans0.ltrans.o
 .rela.data     0x0000000000000000        0x0 C:\Users\Maeoka\AppData\Local\Temp\ccAhU5mk.ltrans0.ltrans.o
                0x000000000400004c                . = ORIGIN (ram)

.data           0x000000000400004c       0x10 load address 0x000000000008a118
                0x000000000400004c                _ram_data_start = ABSOLUTE (.)
 *(.data*)
 .data          0x000000000400004c        0x4 C:\Users\Maeoka\AppData\Local\Temp\ccAhU5mk.ltrans3.ltrans.o
                0x000000000400004c                u32HeapStart
 .data.initinboot
                0x0000000004000050        0x8 C:\Users\Maeoka\AppData\Local\Temp\ccAhU5mk.ltrans3.ltrans.o
 .data          0x0000000004000058        0x1 C:\Users\Maeoka\AppData\Local\Temp\ccAhU5mk.ltrans9.ltrans.o
                0x0000000004000058                u8TxWkrNow.2479
 .data          0x0000000004000059        0x1 C:\Users\Maeoka\AppData\Local\Temp\ccAhU5mk.ltrans10.ltrans.o
 .data.initinboot
                0x000000000400005a        0x1 C:\Users\Maeoka\AppData\Local\Temp\ccAhU5mk.ltrans10.ltrans.o
                0x000000000400005a                gMAC_u8MaxBuffers
 .data          0x000000000400005b        0x1 C:\Users\Maeoka\AppData\Local\Temp\ccAhU5mk.ltrans13.ltrans.o
 *(.data.*)
                0x000000000400005c                . = ALIGN (0x4)
                0x000000000400005c                _ram_data_end = ABSOLUTE (.)

.bss            0x000000000400005c     0x199c load address 0x000000000008a128
                0x000000000400005c                _bss_start = ABSOLUTE (.)
 *(.bss*)
 .bss           0x000000000400005c       0x40 C:\Users\Maeoka\AppData\Local\Temp\ccAhU5mk.ltrans0.ltrans.o
                0x000000000400005c                g_sLP
                0x0000000004000098                g_pvMac
 .bss.initinboot
                0x000000000400009c      0x1c0 C:\Users\Maeoka\AppData\Local\Temp\ccAhU5mk.ltrans0.ltrans.o
                0x000000000400009c                g_sMac
 .bss           0x000000000400025c       0x24 C:\Users\Maeoka\AppData\Local\Temp\ccAhU5mk.ltrans1.ltrans.o
                0x000000000400025c                sAppHousekeeping
                0x0000000004000274                prAppHwCallback.3267
                0x0000000004000278                gbTimeOutFlag.20522
 .bss           0x0000000004000280      0x170 C:\Users\Maeoka\AppData\Local\Temp\ccAhU5mk.ltrans2.ltrans.o
                0x0000000004000280                g_sXcv
                0x0000000004000284                prMcpsRequest.5534
                0x0000000004000288                prMlmeRequest.5533
                0x000000000400028c                prOriginalHandler.4320
                0x0000000004000290                psRxQueueList.4186
                0x00000000040002a4                prTickTimeAppCallback
                0x00000000040002a8                apfTimerAppCallback.20735
                0x00000000040002bc                au16TimerSettings.20684
                0x00000000040002c8                asEventHandler.1572
                0x0000000004000348                sEvVars
                0x0000000004000364                u32TickCount_ms
                0x0000000004000368                au8Txdatabuff_idx_sTxQueue
                0x000000000400036c                u8TxBuffSiz_sTxQueue
                0x0000000004000370                sTxdatabuff_sTxQueue
                0x0000000004000374                sTxQueue
                0x0000000004000390                au8Rxdatabuff_idx_sRxQueue
                0x0000000004000394                u8RxBuffSiz_sRxQueue
                0x0000000004000398                sRxdatabuff_sRxQueue
                0x000000000400039c                sRxQueue
                0x00000000040003b8                au8Rxdatabuff_idx_sRxQueueCmd
                0x00000000040003bc                u8RxBuffSiz_sRxQueueCmd
                0x00000000040003c0                sRxdatabuff_sRxQueueCmd
                0x00000000040003c4                sRxQueueCmd.2010
 .bss           0x00000000040003f0        0x4 C:\Users\Maeoka\AppData\Local\Temp\ccAhU5mk.ltrans3.ltrans.o
 .bss.dontinitinboot
                0x00000000040003f4        0xc C:\Users\Maeoka\AppData\Local\Temp\ccAhU5mk.ltrans3.ltrans.o
 .bss           0x0000000004000400        0x1 C:\Users\Maeoka\AppData\Local\Temp\ccAhU5mk.ltrans4.ltrans.o
                0x0000000004000400                u8TAM_TxStatusOverride
 *fill*         0x0000000004000401        0x3 00
 .bss           0x0000000004000404        0xc C:\Users\Maeoka\AppData\Local\Temp\ccAhU5mk.ltrans5.ltrans.o
                0x0000000004000404                u32Seq.1457
 .bss           0x0000000004000410       0x70 C:\Users\Maeoka\AppData\Local\Temp\ccAhU5mk.ltrans6.ltrans.o
                0x0000000004000410                sToCoNet_AppContext
                0x000000000400042c                sToCoNet_Context
                0x0000000004000470                sAssocSecurity.9151
                0x000000000400047c                g_bJenieBackwardsCompatibilityMode
 .bss           0x0000000004000480       0x58 C:\Users\Maeoka\AppData\Local\Temp\ccAhU5mk.ltrans7.ltrans.o
                0x0000000004000480                asUARTS.4485
                0x00000000040004a0                asSerialPorts
 .bss.dontinitinboot
                0x00000000040004d8        0x1 C:\Users\Maeoka\AppData\Local\Temp\ccAhU5mk.ltrans7.ltrans.o
                0x00000000040004d8                u8SecurityMode.18435
 *fill*         0x00000000040004d9        0x3 00
 .bss           0x00000000040004dc      0x724 C:\Users\Maeoka\AppData\Local\Temp\ccAhU5mk.ltrans8.ltrans.o
                0x00000000040004dc                bForceInitialize.2438
                0x00000000040004e0                prApAppCallback.20198
                0x00000000040004e4                prSpiAppCallback.20323
                0x00000000040004e8                prSiAppCallback.21518
                0x00000000040004ec                prAppMcpsCallback.3265
                0x00000000040004f0                prAppMlmeCallback.3266
                0x00000000040004f4                TxWorker_u8Num.2437
                0x00000000040004f5                bTxEventQueued.16267
                0x00000000040004f6                u8TxEventStatus.16268
 .bss.initinboot
                0x0000000004000c00        0x4 C:\Users\Maeoka\AppData\Local\Temp\ccAhU5mk.ltrans8.ltrans.o
                0x0000000004000c00                prSysCtrlAppCallback.20526
 .bss           0x0000000004000c04       0x34 C:\Users\Maeoka\AppData\Local\Temp\ccAhU5mk.ltrans9.ltrans.o
                0x0000000004000c04                sCh_Context.2900
                0x0000000004000c08                u8AppId_Pkt_head.4189
                0x0000000004000c0c                u32MyAddr.4188
                0x0000000004000c10                u32AppId.4185
                0x0000000004000c14                asTx.2436
 .bss.initinboot
                0x0000000004000c38        0x1 C:\Users\Maeoka\AppData\Local\Temp\ccAhU5mk.ltrans9.ltrans.o
 *fill*         0x0000000004000c39        0x3 00
 .bss.initinboot
                0x0000000004000c3c        0x8 C:\Users\Maeoka\AppData\Local\Temp\ccAhU5mk.ltrans10.ltrans.o
                0x0000000004000c3c                g_u32MacAddrLocation
                0x0000000004000c40                prvUserTxStartedCallback
 .bss           0x0000000004000c44      0xb04 C:\Users\Maeoka\AppData\Local\Temp\ccAhU5mk.ltrans11.ltrans.o
 .bss           0x0000000004001748      0x14c C:\Users\Maeoka\AppData\Local\Temp\ccAhU5mk.ltrans12.ltrans.o
                0x0000000004001748                prUart1AppCallback.20990
                0x000000000400174c                prUart0AppCallback.20989
                0x0000000004001750                sOpt.4492
                0x0000000004001760                sSerPort.1455
                0x0000000004001778                au8sprintf.4649
                0x000000000400177c                SPRINTF_MAX_BUFF.4651
 .bss           0x0000000004001894       0x78 C:\Users\Maeoka\AppData\Local\Temp\ccAhU5mk.ltrans13.ltrans.o
                0x0000000004001894                sMcpsIndQueue.3261
                0x00000000040018a4                bRxQueue_Init.4187
                0x00000000040018a8                sMcpsIndBufferQueue.3259
                0x00000000040018b8                sMlmeIndQueue.3262
                0x00000000040018c8                sMlmeIndBufferQueue.3260
                0x00000000040018d8                sHwIndQueue.3263
                0x00000000040018e8                sHwIndBufferQueue.3264
                0x00000000040018f8                sSerStream.1456
 .bss           0x000000000400190c       0x14 C:\Users\Maeoka\AppData\Local\Temp\ccAhU5mk.ltrans14.ltrans.o
                0x000000000400190c                s_sTimerList
                0x000000000400191c                u8AssocResponsesInProgress.9150
 .bss           0x0000000004001920       0x98 C:\Users\Maeoka\AppData\Local\Temp\ccAhU5mk.ltrans15.ltrans.o
                0x0000000004001920                sContext.4310
                0x000000000400194c                sToCoNet_Modules
 .bss.dontinitinboot
                0x00000000040019b8       0x40 c:/MWSDK/ChipLib/SW4063V1416/Components/Library\libBoot_JN516x.a(ExceptionHandler.o)
                0x00000000040019b8                isr_handlers
 *(.bss.*)
 *(.scommon*)
 *(.scommon.*)
 *(COMMON)
                0x00000000040019f8                . = ALIGN (0x4)
                0x00000000040019f8                _bss_end = ABSOLUTE (.)

.heap           0x00000000040019f8      0xd16 load address 0x000000000008bac4
                0x00000000040019f8                _heap_start = ABSOLUTE (.)
                0x000000000400270e                . = (. + _minimum_heap_size)
 *fill*         0x00000000040019f8      0xd16 00

.stack          0x0000000004007800      0x800 load address 0x00000000000918cc
                0x0000000004007800                _heap_end = ABSOLUTE (.)
                0x0000000004007800                _stack_low_water_mark = ABSOLUTE (.)
                0x0000000004008000                . = (. + _stack_size)
 *fill*         0x0000000004007800      0x800 00

.test           0x000000000008a128        0x1
                0x000000000008a128        0x1 BYTE 0xff
                0x000000000008a118                _flash_data_start = LOADADDR (.data)
                0x0000000000000010                _ram_data_len = (((_ram_data_end - _ram_data_start) + 0x3) & 0xfffffffffffffffc)
                0x000000000000199c                _bss_len = (((_bss_end - _bss_start) + 0x3) & 0xfffffffffffffffc)
                0x000000000000a128                _image_len = ((((_flash_end - _flash_start) + _ram_data_len) + 0x3) & 0xfffffffffffffffc)
                0x0000000004008000                _ram_top = (ABSOLUTE (ORIGIN (ram)) + 0x7fb4)
                0x0000000004008000                ram_top = (ABSOLUTE (ORIGIN (ram)) + 0x7fb4)
                0x0000000001001580                _app_ram_start = 0x1001580
                0x000000000400004c                PROVIDE (_heap_location, u32HeapStart)
                0x000000000400004c                PROVIDE (heap_location, u32HeapStart)
                0x0000000000086721                TSV_eOpenVector = TSV_eOpen
                0x00000000000862a2                TSV_eStartVector = TSV_eStart
                0x0000000000089056                TSV_eStopVector = TSV_eStop
                0x00000000000842c1                pvAppApiGetMacHandle = pvAppApiDefGetMacHandle
                0x00000000000819ce                u32AppApiInit = u32AppApiDefInit
                0x0000000000084296                vAppApiMlmeRequest = vAppApiDefMlmeRequest
                0x000000000008426b                vAppApiMcpsRequest = vAppApiDefMcpsRequest
                0x0000000000084143                eAppApiPlmeSet = eAppApiDefPlmeSet
                0x0000000000086925                eAppApiPlmeGet = eAppApiDefPlmeGet
                0x000000000008691c                pvAppApiGetMacAddrLocation = pvAppApiDefGetMacAddrLocation
                0x00000000000867fa                vAppApiSaveMacSettings = vAppApiDefSaveMacSettings
                0x0000000000086729                vAppApiRestoreMacSettings = vAppApiDefRestoreMacSettings
OUTPUT(objs_BLUE/basic_code_Main_BLUE_L1200_V0-1-1.elf elf32-ba)

.comment        0x0000000000000000       0x11
 .comment       0x0000000000000000       0x12 C:\Users\Maeoka\AppData\Local\Temp\ccAhU5mk.ltrans0.ltrans.o
 .comment       0x0000000000000000       0x12 C:\Users\Maeoka\AppData\Local\Temp\ccAhU5mk.ltrans1.ltrans.o
 .comment       0x0000000000000000       0x12 C:\Users\Maeoka\AppData\Local\Temp\ccAhU5mk.ltrans2.ltrans.o
 .comment       0x0000000000000000       0x12 C:\Users\Maeoka\AppData\Local\Temp\ccAhU5mk.ltrans3.ltrans.o
 .comment       0x0000000000000000       0x12 C:\Users\Maeoka\AppData\Local\Temp\ccAhU5mk.ltrans4.ltrans.o
 .comment       0x0000000000000000       0x12 C:\Users\Maeoka\AppData\Local\Temp\ccAhU5mk.ltrans5.ltrans.o
 .comment       0x0000000000000000       0x12 C:\Users\Maeoka\AppData\Local\Temp\ccAhU5mk.ltrans6.ltrans.o
 .comment       0x0000000000000000       0x12 C:\Users\Maeoka\AppData\Local\Temp\ccAhU5mk.ltrans7.ltrans.o
 .comment       0x0000000000000000       0x12 C:\Users\Maeoka\AppData\Local\Temp\ccAhU5mk.ltrans8.ltrans.o
 .comment       0x0000000000000000       0x12 C:\Users\Maeoka\AppData\Local\Temp\ccAhU5mk.ltrans9.ltrans.o
 .comment       0x0000000000000000       0x12 C:\Users\Maeoka\AppData\Local\Temp\ccAhU5mk.ltrans10.ltrans.o
 .comment       0x0000000000000000       0x12 C:\Users\Maeoka\AppData\Local\Temp\ccAhU5mk.ltrans11.ltrans.o
 .comment       0x0000000000000000       0x12 C:\Users\Maeoka\AppData\Local\Temp\ccAhU5mk.ltrans12.ltrans.o
 .comment       0x0000000000000000       0x12 C:\Users\Maeoka\AppData\Local\Temp\ccAhU5mk.ltrans13.ltrans.o
 .comment       0x0000000000000000       0x12 C:\Users\Maeoka\AppData\Local\Temp\ccAhU5mk.ltrans14.ltrans.o
 .comment       0x0000000000000000       0x12 C:\Users\Maeoka\AppData\Local\Temp\ccAhU5mk.ltrans15.ltrans.o
 .comment       0x0000000000000000       0x12 c:/mwsdk/tools/ba-elf-ba2-r36379/bin/../lib/gcc/ba-elf/4.7.4/../../../../ba-elf/lib/mcpu_jn51xx_sizeopt\libc.a(lib_a-memcmp.o)
 .comment       0x0000000000000000       0x12 c:/mwsdk/tools/ba-elf-ba2-r36379/bin/../lib/gcc/ba-elf/4.7.4/../../../../ba-elf/lib/mcpu_jn51xx_sizeopt\libc.a(lib_a-memcpy.o)
 .comment       0x0000000000000000       0x12 c:/mwsdk/tools/ba-elf-ba2-r36379/bin/../lib/gcc/ba-elf/4.7.4/../../../../ba-elf/lib/mcpu_jn51xx_sizeopt\libc.a(lib_a-memset.o)
 .comment       0x0000000000000000       0x11 c:/MWSDK/ChipLib/SW4063V1416/Components/Library\libMicroSpecific_JN516x.a(MicroSyscall_ba.o)
                                         0x12 (size before relaxing)

.debug_info     0x0000000000000000      0x596
 .debug_info    0x0000000000000000       0xf3 c:/mwsdk/tools/ba-elf-ba2-r36379/bin/../lib/gcc/ba-elf/4.7.4/../../../../ba-elf/lib/mcpu_jn51xx_sizeopt\libc.a(lib_a-memcmp.o)
 .debug_info    0x00000000000000f3      0x106 c:/mwsdk/tools/ba-elf-ba2-r36379/bin/../lib/gcc/ba-elf/4.7.4/../../../../ba-elf/lib/mcpu_jn51xx_sizeopt\libc.a(lib_a-memcpy.o)
 .debug_info    0x00000000000001f9       0xd7 c:/mwsdk/tools/ba-elf-ba2-r36379/bin/../lib/gcc/ba-elf/4.7.4/../../../../ba-elf/lib/mcpu_jn51xx_sizeopt\libc.a(lib_a-memset.o)
 .debug_info    0x00000000000002d0       0xb4 c:/mwsdk/tools/ba-elf-ba2-r36379/bin/../lib/gcc/ba-elf/4.7.4/mcpu_jn51xx_sizeopt\libgcc.a(__udivsi3.o)
 .debug_info    0x0000000000000384       0xb4 c:/mwsdk/tools/ba-elf-ba2-r36379/bin/../lib/gcc/ba-elf/4.7.4/mcpu_jn51xx_sizeopt\libgcc.a(__divsi3.o)
 .debug_info    0x0000000000000438       0xb4 c:/mwsdk/tools/ba-elf-ba2-r36379/bin/../lib/gcc/ba-elf/4.7.4/mcpu_jn51xx_sizeopt\libgcc.a(__umodsi3.o)
 .debug_info    0x00000000000004ec       0xaa c:/MWSDK/ChipLib/SW4063V1416/Components/Library\libBoot_JN516x.a(ExceptionHandler.o)

.debug_abbrev   0x0000000000000000      0x210
 .debug_abbrev  0x0000000000000000       0x8e c:/mwsdk/tools/ba-elf-ba2-r36379/bin/../lib/gcc/ba-elf/4.7.4/../../../../ba-elf/lib/mcpu_jn51xx_sizeopt\libc.a(lib_a-memcmp.o)
 .debug_abbrev  0x000000000000008e       0xa4 c:/mwsdk/tools/ba-elf-ba2-r36379/bin/../lib/gcc/ba-elf/4.7.4/../../../../ba-elf/lib/mcpu_jn51xx_sizeopt\libc.a(lib_a-memcpy.o)
 .debug_abbrev  0x0000000000000132       0x8e c:/mwsdk/tools/ba-elf-ba2-r36379/bin/../lib/gcc/ba-elf/4.7.4/../../../../ba-elf/lib/mcpu_jn51xx_sizeopt\libc.a(lib_a-memset.o)
 .debug_abbrev  0x00000000000001c0       0x14 c:/mwsdk/tools/ba-elf-ba2-r36379/bin/../lib/gcc/ba-elf/4.7.4/mcpu_jn51xx_sizeopt\libgcc.a(__udivsi3.o)
 .debug_abbrev  0x00000000000001d4       0x14 c:/mwsdk/tools/ba-elf-ba2-r36379/bin/../lib/gcc/ba-elf/4.7.4/mcpu_jn51xx_sizeopt\libgcc.a(__divsi3.o)
 .debug_abbrev  0x00000000000001e8       0x14 c:/mwsdk/tools/ba-elf-ba2-r36379/bin/../lib/gcc/ba-elf/4.7.4/mcpu_jn51xx_sizeopt\libgcc.a(__umodsi3.o)
 .debug_abbrev  0x00000000000001fc       0x14 c:/MWSDK/ChipLib/SW4063V1416/Components/Library\libBoot_JN516x.a(ExceptionHandler.o)

.debug_loc      0x0000000000000000       0xeb
 .debug_loc     0x0000000000000000       0x73 c:/mwsdk/tools/ba-elf-ba2-r36379/bin/../lib/gcc/ba-elf/4.7.4/../../../../ba-elf/lib/mcpu_jn51xx_sizeopt\libc.a(lib_a-memcmp.o)
 .debug_loc     0x0000000000000073       0x39 c:/mwsdk/tools/ba-elf-ba2-r36379/bin/../lib/gcc/ba-elf/4.7.4/../../../../ba-elf/lib/mcpu_jn51xx_sizeopt\libc.a(lib_a-memcpy.o)
 .debug_loc     0x00000000000000ac       0x3f c:/mwsdk/tools/ba-elf-ba2-r36379/bin/../lib/gcc/ba-elf/4.7.4/../../../../ba-elf/lib/mcpu_jn51xx_sizeopt\libc.a(lib_a-memset.o)

.debug_aranges  0x0000000000000000       0xe0
 .debug_aranges
                0x0000000000000000       0x20 c:/mwsdk/tools/ba-elf-ba2-r36379/bin/../lib/gcc/ba-elf/4.7.4/../../../../ba-elf/lib/mcpu_jn51xx_sizeopt\libc.a(lib_a-memcmp.o)
 .debug_aranges
                0x0000000000000020       0x20 c:/mwsdk/tools/ba-elf-ba2-r36379/bin/../lib/gcc/ba-elf/4.7.4/../../../../ba-elf/lib/mcpu_jn51xx_sizeopt\libc.a(lib_a-memcpy.o)
 .debug_aranges
                0x0000000000000040       0x20 c:/mwsdk/tools/ba-elf-ba2-r36379/bin/../lib/gcc/ba-elf/4.7.4/../../../../ba-elf/lib/mcpu_jn51xx_sizeopt\libc.a(lib_a-memset.o)
 .debug_aranges
                0x0000000000000060       0x20 c:/mwsdk/tools/ba-elf-ba2-r36379/bin/../lib/gcc/ba-elf/4.7.4/mcpu_jn51xx_sizeopt\libgcc.a(__udivsi3.o)
 .debug_aranges
                0x0000000000000080       0x20 c:/mwsdk/tools/ba-elf-ba2-r36379/bin/../lib/gcc/ba-elf/4.7.4/mcpu_jn51xx_sizeopt\libgcc.a(__divsi3.o)
 .debug_aranges
                0x00000000000000a0       0x20 c:/mwsdk/tools/ba-elf-ba2-r36379/bin/../lib/gcc/ba-elf/4.7.4/mcpu_jn51xx_sizeopt\libgcc.a(__umodsi3.o)
 .debug_aranges
                0x00000000000000c0       0x20 c:/MWSDK/ChipLib/SW4063V1416/Components/Library\libBoot_JN516x.a(ExceptionHandler.o)

.debug_line     0x0000000000000000      0xe6e
 .debug_line    0x0000000000000000      0x154 c:/mwsdk/tools/ba-elf-ba2-r36379/bin/../lib/gcc/ba-elf/4.7.4/../../../../ba-elf/lib/mcpu_jn51xx_sizeopt\libc.a(lib_a-memcmp.o)
 .debug_line    0x0000000000000154      0x148 c:/mwsdk/tools/ba-elf-ba2-r36379/bin/../lib/gcc/ba-elf/4.7.4/../../../../ba-elf/lib/mcpu_jn51xx_sizeopt\libc.a(lib_a-memcpy.o)
 .debug_line    0x000000000000029c      0x13e c:/mwsdk/tools/ba-elf-ba2-r36379/bin/../lib/gcc/ba-elf/4.7.4/../../../../ba-elf/lib/mcpu_jn51xx_sizeopt\libc.a(lib_a-memset.o)
 .debug_line    0x00000000000003da      0x47b c:/mwsdk/tools/ba-elf-ba2-r36379/bin/../lib/gcc/ba-elf/4.7.4/mcpu_jn51xx_sizeopt\libgcc.a(__udivsi3.o)
 .debug_line    0x0000000000000855       0xbb c:/mwsdk/tools/ba-elf-ba2-r36379/bin/../lib/gcc/ba-elf/4.7.4/mcpu_jn51xx_sizeopt\libgcc.a(__divsi3.o)
 .debug_line    0x0000000000000910      0x3c7 c:/mwsdk/tools/ba-elf-ba2-r36379/bin/../lib/gcc/ba-elf/4.7.4/mcpu_jn51xx_sizeopt\libgcc.a(__umodsi3.o)
 .debug_line    0x0000000000000cd7      0x197 c:/MWSDK/ChipLib/SW4063V1416/Components/Library\libBoot_JN516x.a(ExceptionHandler.o)

.debug_str      0x0000000000000000      0x1bf
 .debug_str     0x0000000000000000      0x119 c:/mwsdk/tools/ba-elf-ba2-r36379/bin/../lib/gcc/ba-elf/4.7.4/../../../../ba-elf/lib/mcpu_jn51xx_sizeopt\libc.a(lib_a-memcmp.o)
                                        0x152 (size before relaxing)
 .debug_str     0x0000000000000119       0x5d c:/mwsdk/tools/ba-elf-ba2-r36379/bin/../lib/gcc/ba-elf/4.7.4/../../../../ba-elf/lib/mcpu_jn51xx_sizeopt\libc.a(lib_a-memcpy.o)
                                        0x166 (size before relaxing)
 .debug_str     0x0000000000000176       0x49 c:/mwsdk/tools/ba-elf-ba2-r36379/bin/../lib/gcc/ba-elf/4.7.4/../../../../ba-elf/lib/mcpu_jn51xx_sizeopt\libc.a(lib_a-memset.o)
                                        0x152 (size before relaxing)

.debug_frame    0x0000000000000000       0x60
 .debug_frame   0x0000000000000000       0x20 c:/mwsdk/tools/ba-elf-ba2-r36379/bin/../lib/gcc/ba-elf/4.7.4/../../../../ba-elf/lib/mcpu_jn51xx_sizeopt\libc.a(lib_a-memcmp.o)
 .debug_frame   0x0000000000000020       0x20 c:/mwsdk/tools/ba-elf-ba2-r36379/bin/../lib/gcc/ba-elf/4.7.4/../../../../ba-elf/lib/mcpu_jn51xx_sizeopt\libc.a(lib_a-memcpy.o)
 .debug_frame   0x0000000000000040       0x20 c:/mwsdk/tools/ba-elf-ba2-r36379/bin/../lib/gcc/ba-elf/4.7.4/../../../../ba-elf/lib/mcpu_jn51xx_sizeopt\libc.a(lib_a-memset.o)
